target datalayout = "e-m:e-p270:32:32-p271:32:32-p272:64:64-i64:64-i128:128-f80:128-n8:16:32:64-S128"
target triple = "x86_64-pc-linux-gnu"

%struct.List = type { i32, i32, i32, ptr, [0 x %union.ListCell] }
%union.ListCell = type { ptr }
%struct.ForBothState = type { ptr, ptr, i32 }

@.str.1 = private unnamed_addr constant [15 x i8] c"parse_clause.c\00", align 1
@.str.68 = private unnamed_addr constant [48 x i8] c"get_matching_location: no matching sortgroupref\00", align 1
@__func__.get_matching_location = private unnamed_addr constant [22 x i8] c"get_matching_location\00", align 1

; Function Attrs: nounwind uwtable
define internal i32 @get_matching_location(i32 noundef %0, ptr noundef %1, ptr noundef %2) #0 {
  %4 = alloca i32, align 4
  %5 = alloca i32, align 4
  %6 = alloca ptr, align 8
  %7 = alloca ptr, align 8
  %8 = alloca ptr, align 8
  %9 = alloca ptr, align 8
  %10 = alloca %struct.ForBothState, align 8
  %11 = alloca i32, align 4
  store i32 %0, ptr %5, align 4
  store ptr %1, ptr %6, align 8
  store ptr %2, ptr %7, align 8
  call void @llvm.lifetime.start.p0(i64 8, ptr %8) #8
  call void @llvm.lifetime.start.p0(i64 8, ptr %9) #8
  call void @llvm.lifetime.start.p0(i64 24, ptr %10) #8
  %12 = getelementptr inbounds nuw %struct.ForBothState, ptr %10, i32 0, i32 0
  %13 = load ptr, ptr %6, align 8
  store ptr %13, ptr %12, align 8
  %14 = getelementptr inbounds nuw %struct.ForBothState, ptr %10, i32 0, i32 1
  %15 = load ptr, ptr %7, align 8
  store ptr %15, ptr %14, align 8
  %16 = getelementptr inbounds nuw %struct.ForBothState, ptr %10, i32 0, i32 2
  store i32 0, ptr %16, align 8
  %17 = getelementptr i8, ptr %10, i64 20
  call void @llvm.memset.p0.i64(ptr align 4 %17, i8 0, i64 4, i1 false)
  br label %18

18:                                               ; preds = %83, %3
  %19 = getelementptr inbounds nuw %struct.ForBothState, ptr %10, i32 0, i32 0
  %20 = load ptr, ptr %19, align 8
  %21 = icmp ne ptr %20, null
  br i1 %21, label %22, label %39

22:                                               ; preds = %18
  %23 = getelementptr inbounds nuw %struct.ForBothState, ptr %10, i32 0, i32 2
  %24 = load i32, ptr %23, align 8
  %25 = getelementptr inbounds nuw %struct.ForBothState, ptr %10, i32 0, i32 0
  %26 = load ptr, ptr %25, align 8
  %27 = getelementptr inbounds nuw %struct.List, ptr %26, i32 0, i32 1
  %28 = load i32, ptr %27, align 4
  %29 = icmp slt i32 %24, %28
  br i1 %29, label %30, label %39

30:                                               ; preds = %22
  %31 = getelementptr inbounds nuw %struct.ForBothState, ptr %10, i32 0, i32 0
  %32 = load ptr, ptr %31, align 8
  %33 = getelementptr inbounds nuw %struct.List, ptr %32, i32 0, i32 3
  %34 = load ptr, ptr %33, align 8
  %35 = getelementptr inbounds nuw %struct.ForBothState, ptr %10, i32 0, i32 2
  %36 = load i32, ptr %35, align 8
  %37 = sext i32 %36 to i64
  %38 = getelementptr inbounds %union.ListCell, ptr %34, i64 %37
  br label %40

39:                                               ; preds = %22, %18
  br label %40

40:                                               ; preds = %39, %30
  %41 = phi ptr [ %38, %30 ], [ null, %39 ]
  store ptr %41, ptr %8, align 8
  %42 = getelementptr inbounds nuw %struct.ForBothState, ptr %10, i32 0, i32 1
  %43 = load ptr, ptr %42, align 8
  %44 = icmp ne ptr %43, null
  br i1 %44, label %45, label %62

45:                                               ; preds = %40
  %46 = getelementptr inbounds nuw %struct.ForBothState, ptr %10, i32 0, i32 2
  %47 = load i32, ptr %46, align 8
  %48 = getelementptr inbounds nuw %struct.ForBothState, ptr %10, i32 0, i32 1
  %49 = load ptr, ptr %48, align 8
  %50 = getelementptr inbounds nuw %struct.List, ptr %49, i32 0, i32 1
  %51 = load i32, ptr %50, align 4
  %52 = icmp slt i32 %47, %51
  br i1 %52, label %53, label %62

53:                                               ; preds = %45
  %54 = getelementptr inbounds nuw %struct.ForBothState, ptr %10, i32 0, i32 1
  %55 = load ptr, ptr %54, align 8
  %56 = getelementptr inbounds nuw %struct.List, ptr %55, i32 0, i32 3
  %57 = load ptr, ptr %56, align 8
  %58 = getelementptr inbounds nuw %struct.ForBothState, ptr %10, i32 0, i32 2
  %59 = load i32, ptr %58, align 8
  %60 = sext i32 %59 to i64
  %61 = getelementptr inbounds %union.ListCell, ptr %57, i64 %60
  br label %63

62:                                               ; preds = %45, %40
  br label %63

63:                                               ; preds = %62, %53
  %64 = phi ptr [ %61, %53 ], [ null, %62 ]
  store ptr %64, ptr %9, align 8
  %65 = load ptr, ptr %8, align 8
  %66 = icmp ne ptr %65, null
  br i1 %66, label %67, label %70

67:                                               ; preds = %63
  %68 = load ptr, ptr %9, align 8
  %69 = icmp ne ptr %68, null
  br label %70

70:                                               ; preds = %67, %63
  %71 = phi i1 [ false, %63 ], [ %69, %67 ]
  br i1 %71, label %73, label %72

72:                                               ; preds = %70
  store i32 2, ptr %11, align 4
  br label %87

73:                                               ; preds = %70
  %74 = load ptr, ptr %8, align 8
  %75 = load i32, ptr %74, align 8
  %76 = load i32, ptr %5, align 4
  %77 = icmp eq i32 %75, %76
  br i1 %77, label %78, label %82

78:                                               ; preds = %73
  %79 = load ptr, ptr %9, align 8
  %80 = load ptr, ptr %79, align 8
  %81 = call i32 @exprLocation(ptr noundef %80)
  store i32 %81, ptr %4, align 4
  store i32 1, ptr %11, align 4
  br label %87

82:                                               ; preds = %73
  br label %83

83:                                               ; preds = %82
  %84 = getelementptr inbounds nuw %struct.ForBothState, ptr %10, i32 0, i32 2
  %85 = load i32, ptr %84, align 8
  %86 = add i32 %85, 1
  store i32 %86, ptr %84, align 8
  br label %18, !llvm.loop !36

87:                                               ; preds = %78, %72
  call void @llvm.lifetime.end.p0(i64 24, ptr %10) #8
  %88 = load i32, ptr %11, align 4
  switch i32 %88, label %100 [
    i32 2, label %89
  ]

89:                                               ; preds = %87
  br label %90

90:                                               ; preds = %89
  br i1 true, label %91, label %93

91:                                               ; preds = %90
  %92 = call zeroext i1 @errstart_cold(i32 noundef 21, ptr noundef null) #9
  br i1 %92, label %95, label %97

93:                                               ; preds = %90
  %94 = call zeroext i1 @errstart(i32 noundef 21, ptr noundef null)
  br i1 %94, label %95, label %97

95:                                               ; preds = %93, %91
  %96 = call i32 (ptr, ...) @errmsg_internal(ptr noundef @.str.68)
  call void @errfinish(ptr noundef @.str.1, i32 noundef 3187, ptr noundef @__func__.get_matching_location)
  br label %97

97:                                               ; preds = %95, %93, %91
  unreachable

98:                                               ; No predecessors!
  br label %99

99:                                               ; preds = %98
  store i32 -1, ptr %4, align 4
  store i32 1, ptr %11, align 4
  br label %100

100:                                              ; preds = %99, %87
  call void @llvm.lifetime.end.p0(i64 8, ptr %9) #8
  call void @llvm.lifetime.end.p0(i64 8, ptr %8) #8
  %101 = load i32, ptr %4, align 4
  ret i32 %101
}