; Function Attrs: nounwind uwtable
define internal fastcc i32 @get_matching_location(i32 noundef %0, ptr noundef readonly captures(address_is_null) %1, ptr noundef readonly captures(address_is_null) %2) unnamed_addr #0 {
  %.not = icmp eq ptr %1, null
  %.not21 = icmp eq ptr %2, null
  %4 = getelementptr inbounds nuw i8, ptr %1, i64 16
  %5 = getelementptr inbounds nuw i8, ptr %2, i64 16
  %brmerge = or i1 %.not21, %.not
  br i1 %brmerge, label %.thread, label %.split.split

.split.split:                                     ; preds = %3
  %6 = getelementptr inbounds nuw i8, ptr %1, i64 4
  %7 = getelementptr inbounds nuw i8, ptr %2, i64 4
  %8 = load i32, ptr %7, align 4
  %9 = load i32, ptr %6, align 4
  %10 = sext i32 %9 to i64
  %smax = tail call i32 @llvm.smax.i32(i32 %8, i32 0)
  %wide.trip.count = zext nneg i32 %smax to i64
  br label %11

11:                                               ; preds = %25, %.split.split
  %indvars.iv = phi i64 [ %indvars.iv.next, %25 ], [ 0, %.split.split ]
  %12 = icmp slt i64 %indvars.iv, %10
  br i1 %12, label %13, label %16

13:                                               ; preds = %11
  %14 = load ptr, ptr %4, align 8
  %15 = getelementptr inbounds nuw %union.ListCell, ptr %14, i64 %indvars.iv
  br label %16

16:                                               ; preds = %11, %13
  %17 = phi ptr [ %15, %13 ], [ null, %11 ]
  %exitcond.not = icmp eq i64 %indvars.iv, %wide.trip.count
  br i1 %exitcond.not, label %.thread, label %18

18:                                               ; preds = %16
  %19 = load ptr, ptr %5, align 8
  %20 = icmp eq ptr %17, null
  %21 = icmp eq ptr %19, null
  %.not24 = select i1 %20, i1 true, i1 %21
  br i1 %.not24, label %.thread, label %22

22:                                               ; preds = %18
  %23 = load i32, ptr %17, align 8
  %24 = icmp eq i32 %23, %0
  br i1 %24, label %.split34, label %25

25:                                               ; preds = %22
  %indvars.iv.next = add nuw nsw i64 %indvars.iv, 1
  br label %11, !llvm.loop !19

.thread:                                          ; preds = %16, %18, %3
  %26 = tail call zeroext i1 @errstart_cold(i32 noundef 21, ptr noundef null) #10
  tail call void @llvm.assume(i1 %26)
  %27 = tail call i32 (ptr, ...) @errmsg_internal(ptr noundef nonnull @.str.68) #9
  tail call void @errfinish(ptr noundef nonnull @.str.1, i32 noundef 3187, ptr noundef nonnull @__func__.get_matching_location) #9
  unreachable

.split34:                                         ; preds = %22
  %28 = and i64 %indvars.iv, 4294967295
  %29 = getelementptr inbounds nuw %union.ListCell, ptr %19, i64 %28
  %30 = load ptr, ptr %29, align 8
  %31 = tail call i32 @exprLocation(ptr noundef %30) #9
  ret i32 %31
}